target datalayout = "e-m:e-p270:32:32-p271:32:32-p272:64:64-i64:64-i128:128-f80:128-n8:16:32:64-S128"
target triple = "x86_64-pc-linux-gnu"

%struct.mi_stats_s = type { %struct.mi_stat_count_s, %struct.mi_stat_count_s, %struct.mi_stat_count_s, %struct.mi_stat_count_s, %struct.mi_stat_count_s, %struct.mi_stat_count_s, %struct.mi_stat_count_s, %struct.mi_stat_count_s, %struct.mi_stat_count_s, %struct.mi_stat_count_s, %struct.mi_stat_count_s, %struct.mi_stat_count_s, %struct.mi_stat_count_s, %struct.mi_stat_count_s, %struct.mi_stat_count_s, %struct.mi_stat_counter_s, %struct.mi_stat_counter_s, %struct.mi_stat_counter_s, %struct.mi_stat_counter_s, %struct.mi_stat_counter_s, %struct.mi_stat_counter_s, %struct.mi_stat_counter_s, %struct.mi_stat_counter_s, %struct.mi_stat_counter_s, %struct.mi_stat_counter_s, %struct.mi_stat_counter_s, %struct.mi_stat_counter_s, %struct.mi_stat_counter_s, %struct.mi_stat_counter_s }
%struct.mi_stat_count_s = type { i64, i64, i64, i64 }
%struct.mi_stat_counter_s = type { i64, i64 }

@_mi_stats_main = external global %struct.mi_stats_s, align 64
@.str.7 = private unnamed_addr constant [77 x i8] c"unable to free OS memory (error: %d (0x%x), size: 0x%zx bytes, address: %p)\0A\00", align 1

; Function Attrs: nounwind uwtable
define internal void @mi_os_prim_free(ptr noundef %0, i64 noundef %1, i64 noundef %2) #0 {
  %4 = alloca ptr, align 8
  %5 = alloca i64, align 8
  %6 = alloca i64, align 8
  %7 = alloca i32, align 4
  store ptr %0, ptr %4, align 8, !tbaa !20
  store i64 %1, ptr %5, align 8, !tbaa !14
  store i64 %2, ptr %6, align 8, !tbaa !14
  %8 = load ptr, ptr %4, align 8, !tbaa !20
  %9 = icmp eq ptr %8, null
  br i1 %9, label %13, label %10

10:                                               ; preds = %3
  %11 = load i64, ptr %5, align 8, !tbaa !14
  %12 = icmp eq i64 %11, 0
  br i1 %12, label %13, label %14

13:                                               ; preds = %10, %3
  br label %32

14:                                               ; preds = %10
  call void @llvm.lifetime.start.p0(i64 4, ptr %7) #9
  %15 = load ptr, ptr %4, align 8, !tbaa !20
  %16 = load i64, ptr %5, align 8, !tbaa !14
  %17 = call i32 @_mi_prim_free(ptr noundef %15, i64 noundef %16) #8
  store i32 %17, ptr %7, align 4, !tbaa !25
  %18 = load i32, ptr %7, align 4, !tbaa !25
  %19 = icmp ne i32 %18, 0
  br i1 %19, label %20, label %25

20:                                               ; preds = %14
  %21 = load i32, ptr %7, align 4, !tbaa !25
  %22 = load i32, ptr %7, align 4, !tbaa !25
  %23 = load i64, ptr %5, align 8, !tbaa !14
  %24 = load ptr, ptr %4, align 8, !tbaa !20
  call void (ptr, ...) @_mi_warning_message(ptr noundef @.str.7, i32 noundef %21, i32 noundef %22, i64 noundef %23, ptr noundef %24) #8
  br label %25

25:                                               ; preds = %20, %14
  %26 = load i64, ptr %6, align 8, !tbaa !14
  %27 = icmp ugt i64 %26, 0
  br i1 %27, label %28, label %30

28:                                               ; preds = %25
  %29 = load i64, ptr %6, align 8, !tbaa !14
  call void @_mi_stat_decrease(ptr noundef getelementptr inbounds nuw (%struct.mi_stats_s, ptr @_mi_stats_main, i32 0, i32 3), i64 noundef %29) #8
  br label %30

30:                                               ; preds = %28, %25
  %31 = load i64, ptr %5, align 8, !tbaa !14
  call void @_mi_stat_decrease(ptr noundef getelementptr inbounds nuw (%struct.mi_stats_s, ptr @_mi_stats_main, i32 0, i32 2), i64 noundef %31) #8
  call void @llvm.lifetime.end.p0(i64 4, ptr %7) #9
  br label %32

32:                                               ; preds = %30, %13
  ret void
}