; Function Attrs: nounwind uwtable
define internal fastcc void @mi_os_prim_free(ptr noundef %0, i64 noundef %1, i64 noundef %2) unnamed_addr #1 {
  %4 = icmp eq ptr %0, null
  %5 = icmp eq i64 %1, 0
  %or.cond = or i1 %4, %5
  br i1 %or.cond, label %12, label %6

6:                                                ; preds = %3
  %7 = tail call i32 @_mi_prim_free(ptr noundef nonnull %0, i64 noundef %1) #7
  %.not = icmp eq i32 %7, 0
  br i1 %.not, label %9, label %8

8:                                                ; preds = %6
  tail call void (ptr, ...) @_mi_warning_message(ptr noundef nonnull @.str.7, i32 noundef %7, i32 noundef %7, i64 noundef %1, ptr noundef nonnull %0) #7
  br label %9

9:                                                ; preds = %8, %6
  %.not15 = icmp eq i64 %2, 0
  br i1 %.not15, label %11, label %10

10:                                               ; preds = %9
  tail call void @_mi_stat_decrease(ptr noundef nonnull getelementptr inbounds nuw (i8, ptr @_mi_stats_main, i64 96), i64 noundef %2) #7
  br label %11

11:                                               ; preds = %10, %9
  tail call void @_mi_stat_decrease(ptr noundef nonnull getelementptr inbounds nuw (i8, ptr @_mi_stats_main, i64 64), i64 noundef %1) #7
  br label %12

12:                                               ; preds = %3, %11
  ret void
}